target datalayout = "e-m:e-p270:32:32-p271:32:32-p272:64:64-i64:64-i128:128-f80:128-n8:16:32:64-S128"
target triple = "x86_64-pc-linux-gnu"

@no_name_rest.rbimpl_id = internal global i64 0, align 8
@.str.41 = private unnamed_addr constant [26 x i8] c"NODE_SPECIAL_NO_NAME_REST\00", align 1

; Function Attrs: inlinehint nounwind sspstrong willreturn memory(read) uwtable
define internal i64 @rb_intern_const(ptr noundef nonnull %0) #8 {
  %2 = alloca ptr, align 8
  %3 = alloca i64, align 8
  store ptr %0, ptr %2, align 8, !tbaa !117
  call void @llvm.lifetime.start.p0(i64 8, ptr %3) #16
  %4 = load ptr, ptr %2, align 8, !tbaa !117
  %5 = call i64 @strlen(ptr noundef %4) #18
  store i64 %5, ptr %3, align 8, !tbaa !12
  %6 = load ptr, ptr %2, align 8, !tbaa !117
  %7 = load i64, ptr %3, align 8, !tbaa !12
  %8 = call i64 @rb_intern2(ptr noundef %6, i64 noundef %7)
  call void @llvm.lifetime.end.p0(i64 8, ptr %3) #16
  ret i64 %8
}

; Function Attrs: inlinehint nounwind sspstrong memory(argmem: readwrite, inaccessiblemem: readwrite) uwtable
define internal i64 @rbimpl_intern_const(ptr noundef nonnull %0, ptr noundef nonnull %1) #7 {
  %3 = alloca ptr, align 8
  %4 = alloca ptr, align 8
  store ptr %0, ptr %3, align 8, !tbaa !116
  store ptr %1, ptr %4, align 8, !tbaa !117
  br label %5

5:                                                ; preds = %10, %2
  %6 = load ptr, ptr %3, align 8, !tbaa !116
  %7 = load i64, ptr %6, align 8, !tbaa !12
  %8 = icmp ne i64 %7, 0
  %9 = xor i1 %8, true
  br i1 %9, label %10, label %14

10:                                               ; preds = %5
  %11 = load ptr, ptr %4, align 8, !tbaa !117
  %12 = call i64 @rb_intern_const(ptr noundef %11) #18
  %13 = load ptr, ptr %3, align 8, !tbaa !116
  store i64 %12, ptr %13, align 8, !tbaa !12
  br label %5, !llvm.loop !118

14:                                               ; preds = %5
  %15 = load ptr, ptr %3, align 8, !tbaa !116
  %16 = load i64, ptr %15, align 8, !tbaa !12
  ret i64 %16
}

; Function Attrs: nounwind sspstrong uwtable
define internal i64 @no_name_rest() #0 {
  %1 = alloca i64, align 8
  call void @llvm.lifetime.start.p0(i64 8, ptr %1) #16
  br label %2

2:                                                ; preds = %0
  %3 = call i64 @rbimpl_intern_const(ptr noundef @no_name_rest.rbimpl_id, ptr noundef @.str.41) #20
  store i64 %3, ptr %1, align 8, !tbaa !12
  br label %4

4:                                                ; preds = %2
  br label %5

5:                                                ; preds = %4
  %6 = load i64, ptr %1, align 8, !tbaa !12
  %7 = call i64 @rb_id2sym(i64 noundef %6)
  call void @llvm.lifetime.end.p0(i64 8, ptr %1) #16
  ret i64 %7
}