; Function Attrs: nounwind sspstrong uwtable
define internal fastcc i64 @no_name_rest() unnamed_addr #0 {
  %.pr.i = load i64, ptr @no_name_rest.rbimpl_id, align 8, !tbaa !47
  %.not4.i = icmp eq i64 %.pr.i, 0
  br i1 %.not4.i, label %.lr.ph.i, label %rbimpl_intern_const.exit

.lr.ph.i:                                         ; preds = %0, %.lr.ph.i
  %1 = tail call i64 @rb_intern2(ptr noundef nonnull @.str.41, i64 noundef 25) #11
  store i64 %1, ptr @no_name_rest.rbimpl_id, align 8, !tbaa !47
  %.not.i = icmp eq i64 %1, 0
  br i1 %.not.i, label %.lr.ph.i, label %rbimpl_intern_const.exit, !llvm.loop !112

rbimpl_intern_const.exit:                         ; preds = %.lr.ph.i, %0
  %.lcssa.i = phi i64 [ %.pr.i, %0 ], [ %1, %.lr.ph.i ]
  %2 = tail call i64 @rb_id2sym(i64 noundef %.lcssa.i) #11
  ret i64 %2
}